; Function Attrs: mustprogress uwtable
define dso_local void @_ZNK5vcpkg4Json16PathDeserializer12visit_stringERNS0_6ReaderENS_10StringViewE(ptr dead_on_unwind noalias writable sret(%"struct.vcpkg::Optional.21") align 8 %0, ptr nocapture nonnull readnone align 8 %1, ptr nocapture nonnull readnone align 8 %2, ptr %3, i64 %4) unnamed_addr #8 align 2 {
  %6 = alloca %"struct.vcpkg::Path", align 8
  call void @llvm.lifetime.start.p0(i64 32, ptr nonnull %6)
  call void @_ZN5vcpkg4PathC1ENS_10StringViewE(ptr noundef nonnull align 8 dereferenceable(32) %6, ptr %3, i64 %4)
  store i8 1, ptr %0, align 8
  %7 = getelementptr inbounds i8, ptr %0, i64 8
  call void @_ZNSt7__cxx1112basic_stringIcSt11char_traitsIcESaIcEEC1EOS4_(ptr noundef nonnull align 8 dereferenceable(32) %7, ptr noundef nonnull align 8 dereferenceable(32) %6) #26
  call void @_ZNSt7__cxx1112basic_stringIcSt11char_traitsIcESaIcEED1Ev(ptr noundef nonnull align 8 dereferenceable(32) %6) #26
  call void @llvm.lifetime.end.p0(i64 32, ptr nonnull %6)
  ret void
}